target datalayout = "e-m:e-p270:32:32-p271:32:32-p272:64:64-i64:64-i128:128-f80:128-n8:16:32:64-S128"
target triple = "x86_64-pc-linux-gnu"

%union.pthread_mutex_t = type { %struct.__pthread_mutex_s }
%struct.__pthread_mutex_s = type { i32, i32, i32, i32, i32, i16, i16, %struct.__pthread_internal_list }
%struct.__pthread_internal_list = type { ptr, ptr }
%union.pthread_cond_t = type { %struct.__pthread_cond_s }
%struct.__pthread_cond_s = type { %union.__atomic_wide_counter, %union.__atomic_wide_counter, [2 x i32], [2 x i32], i32, i32, [2 x i32] }
%union.__atomic_wide_counter = type { i64 }
%class.PlatformEvent = type { [4 x double], i32, i32, [1 x %union.pthread_mutex_t], [1 x %union.pthread_cond_t], [2 x double] }
%"struct.Atomic::CmpxchgImpl" = type { i8 }
%"struct.Atomic::PlatformCmpxchg" = type { i8 }

@g_assert_poison = external global ptr, align 8
@.str.67 = private unnamed_addr constant [34 x i8] c"src/hotspot/os/posix/os_posix.cpp\00", align 1
@.str.84 = private unnamed_addr constant [25 x i8] c"guarantee(v >= 0) failed\00", align 1
@.str.85 = private unnamed_addr constant [10 x i8] c"invariant\00", align 1
@.str.86 = private unnamed_addr constant [32 x i8] c"guarantee(_nParked == 0) failed\00", align 1
@.str.87 = private unnamed_addr constant [30 x i8] c"guarantee(_event >= 0) failed\00", align 1

; Function Attrs: mustprogress nounwind uwtable
define linkonce_odr hidden noundef i32 @_ZNK6Atomic15PlatformCmpxchgILm4EEclIiEET_PVS3_S3_S3_19atomic_memory_order(ptr noundef nonnull align 1 dereferenceable(1) %0, ptr noundef %1, i32 noundef %2, i32 noundef %3, i32 noundef %4) #1 comdat align 2 {
  %6 = alloca ptr, align 8
  %7 = alloca ptr, align 8
  %8 = alloca i32, align 4
  %9 = alloca i32, align 4
  %10 = alloca i32, align 4
  store ptr %0, ptr %6, align 8
  store ptr %1, ptr %7, align 8
  store i32 %2, ptr %8, align 4
  store i32 %3, ptr %9, align 4
  store i32 %4, ptr %10, align 4
  %11 = load i32, ptr %9, align 4
  %12 = load i32, ptr %8, align 4
  %13 = load ptr, ptr %7, align 8
  %14 = call i32 asm sideeffect "lock cmpxchgl $1,($3)", "={ax},r,{ax},r,~{cc},~{memory},~{dirflag},~{fpsr},~{flags}"(i32 %11, i32 %12, ptr %13) #7, !srcloc !33
  store i32 %14, ptr %9, align 4
  %15 = load i32, ptr %9, align 4
  ret i32 %15
}

; Function Attrs: mustprogress nounwind uwtable
define internal void @_ZL16compiler_barrierv() #1 {
  call void asm sideeffect "", "~{memory},~{dirflag},~{fpsr},~{flags}"() #7, !srcloc !32
  ret void
}

; Function Attrs: mustprogress nounwind uwtable
define linkonce_odr hidden noundef i32 @_ZNK6Atomic11CmpxchgImplIiiivEclEPViii19atomic_memory_order(ptr noundef nonnull align 1 dereferenceable(1) %0, ptr noundef %1, i32 noundef %2, i32 noundef %3, i32 noundef %4) #1 comdat align 2 {
  %6 = alloca ptr, align 8
  %7 = alloca ptr, align 8
  %8 = alloca i32, align 4
  %9 = alloca i32, align 4
  %10 = alloca i32, align 4
  %11 = alloca %"struct.Atomic::PlatformCmpxchg", align 1
  store ptr %0, ptr %6, align 8
  store ptr %1, ptr %7, align 8
  store i32 %2, ptr %8, align 4
  store i32 %3, ptr %9, align 4
  store i32 %4, ptr %10, align 4
  %12 = load ptr, ptr %7, align 8
  %13 = load i32, ptr %8, align 4
  %14 = load i32, ptr %9, align 4
  %15 = load i32, ptr %10, align 4
  %16 = call noundef i32 @_ZNK6Atomic15PlatformCmpxchgILm4EEclIiEET_PVS3_S3_S3_19atomic_memory_order(ptr noundef nonnull align 1 dereferenceable(1) %11, ptr noundef %12, i32 noundef %13, i32 noundef %14, i32 noundef %15)
  ret i32 %16
}

; Function Attrs: mustprogress nounwind uwtable
define linkonce_odr hidden void @_ZN11OrderAccess5fenceEv() #1 comdat align 2 {
  call void asm sideeffect "lock; addl $$0,0(%rsp)", "~{cc},~{memory},~{dirflag},~{fpsr},~{flags}"() #7, !srcloc !23
  call void @_ZL16compiler_barrierv()
  ret void
}

; Function Attrs: mustprogress nounwind uwtable
define linkonce_odr hidden noundef i32 @_ZN6Atomic7cmpxchgIiiiEET_PVS1_T0_T1_19atomic_memory_order(ptr noundef %0, i32 noundef %1, i32 noundef %2, i32 noundef %3) #1 comdat align 2 {
  %5 = alloca ptr, align 8
  %6 = alloca i32, align 4
  %7 = alloca i32, align 4
  %8 = alloca i32, align 4
  %9 = alloca %"struct.Atomic::CmpxchgImpl", align 1
  store ptr %0, ptr %5, align 8
  store i32 %1, ptr %6, align 4
  store i32 %2, ptr %7, align 4
  store i32 %3, ptr %8, align 4
  %10 = load ptr, ptr %5, align 8
  %11 = load i32, ptr %6, align 4
  %12 = load i32, ptr %7, align 4
  %13 = load i32, ptr %8, align 4
  %14 = call noundef i32 @_ZNK6Atomic11CmpxchgImplIiiivEclEPViii19atomic_memory_order(ptr noundef nonnull align 1 dereferenceable(1) %9, ptr noundef %10, i32 noundef %11, i32 noundef %12, i32 noundef %13)
  ret i32 %14
}

; Function Attrs: mustprogress nounwind uwtable
define hidden void @_ZN13PlatformEvent4parkEv(ptr noundef nonnull align 8 dereferenceable(144) %0) #1 align 2 {
  %2 = alloca ptr, align 8
  %3 = alloca i32, align 4
  %4 = alloca i32, align 4
  store ptr %0, ptr %2, align 8
  %5 = load ptr, ptr %2, align 8
  br label %6

6:                                                ; preds = %17, %1
  %7 = getelementptr inbounds %class.PlatformEvent, ptr %5, i32 0, i32 1
  %8 = load volatile i32, ptr %7, align 8
  store i32 %8, ptr %3, align 4
  %9 = getelementptr inbounds %class.PlatformEvent, ptr %5, i32 0, i32 1
  %10 = load i32, ptr %3, align 4
  %11 = load i32, ptr %3, align 4
  %12 = sub nsw i32 %11, 1
  %13 = call noundef i32 @_ZN6Atomic7cmpxchgIiiiEET_PVS1_T0_T1_19atomic_memory_order(ptr noundef %9, i32 noundef %10, i32 noundef %12, i32 noundef 8)
  %14 = load i32, ptr %3, align 4
  %15 = icmp eq i32 %13, %14
  br i1 %15, label %16, label %17

16:                                               ; preds = %6
  br label %18

17:                                               ; preds = %6
  br label %6, !llvm.loop !21

18:                                               ; preds = %16
  br label %19

19:                                               ; preds = %18
  %20 = load i32, ptr %3, align 4
  %21 = icmp sge i32 %20, 0
  br i1 %21, label %24, label %22

22:                                               ; preds = %19
  %23 = load ptr, ptr @g_assert_poison, align 8
  store i8 88, ptr %23, align 1
  call void (ptr, i32, ptr, ptr, ...) @_Z15report_vm_errorPKciS0_S0_z(ptr noundef @.str.67, i32 noundef 1625, ptr noundef @.str.84, ptr noundef @.str.85) #17
  unreachable

24:                                               ; preds = %19
  br label %25

25:                                               ; preds = %24
  %26 = load i32, ptr %3, align 4
  %27 = icmp eq i32 %26, 0
  br i1 %27, label %28, label %61

28:                                               ; preds = %25
  %29 = getelementptr inbounds %class.PlatformEvent, ptr %5, i32 0, i32 3
  %30 = getelementptr inbounds [1 x %union.pthread_mutex_t], ptr %29, i64 0, i64 0
  %31 = call i32 @pthread_mutex_lock(ptr noundef %30) #7
  store i32 %31, ptr %4, align 4
  br label %32

32:                                               ; preds = %28
  %33 = getelementptr inbounds %class.PlatformEvent, ptr %5, i32 0, i32 2
  %34 = load volatile i32, ptr %33, align 4
  %35 = icmp eq i32 %34, 0
  br i1 %35, label %38, label %36

36:                                               ; preds = %32
  %37 = load ptr, ptr @g_assert_poison, align 8
  store i8 88, ptr %37, align 1
  call void (ptr, i32, ptr, ptr, ...) @_Z15report_vm_errorPKciS0_S0_z(ptr noundef @.str.67, i32 noundef 1630, ptr noundef @.str.86, ptr noundef @.str.85) #17
  unreachable

38:                                               ; preds = %32
  br label %39

39:                                               ; preds = %38
  %40 = getelementptr inbounds %class.PlatformEvent, ptr %5, i32 0, i32 2
  %41 = load volatile i32, ptr %40, align 4
  %42 = add nsw i32 %41, 1
  store volatile i32 %42, ptr %40, align 4
  br label %43

43:                                               ; preds = %47, %39
  %44 = getelementptr inbounds %class.PlatformEvent, ptr %5, i32 0, i32 1
  %45 = load volatile i32, ptr %44, align 8
  %46 = icmp slt i32 %45, 0
  br i1 %46, label %47, label %53

47:                                               ; preds = %43
  %48 = getelementptr inbounds %class.PlatformEvent, ptr %5, i32 0, i32 4
  %49 = getelementptr inbounds [1 x %union.pthread_cond_t], ptr %48, i64 0, i64 0
  %50 = getelementptr inbounds %class.PlatformEvent, ptr %5, i32 0, i32 3
  %51 = getelementptr inbounds [1 x %union.pthread_mutex_t], ptr %50, i64 0, i64 0
  %52 = call i32 @pthread_cond_wait(ptr noundef %49, ptr noundef %51)
  store i32 %52, ptr %4, align 4
  br label %43, !llvm.loop !22

53:                                               ; preds = %43
  %54 = getelementptr inbounds %class.PlatformEvent, ptr %5, i32 0, i32 2
  %55 = load volatile i32, ptr %54, align 4
  %56 = add nsw i32 %55, -1
  store volatile i32 %56, ptr %54, align 4
  %57 = getelementptr inbounds %class.PlatformEvent, ptr %5, i32 0, i32 1
  store volatile i32 0, ptr %57, align 8
  %58 = getelementptr inbounds %class.PlatformEvent, ptr %5, i32 0, i32 3
  %59 = getelementptr inbounds [1 x %union.pthread_mutex_t], ptr %58, i64 0, i64 0
  %60 = call i32 @pthread_mutex_unlock(ptr noundef %59) #7
  store i32 %60, ptr %4, align 4
  call void @_ZN11OrderAccess5fenceEv()
  br label %61

61:                                               ; preds = %53, %25
  br label %62

62:                                               ; preds = %61
  %63 = getelementptr inbounds %class.PlatformEvent, ptr %5, i32 0, i32 1
  %64 = load volatile i32, ptr %63, align 8
  %65 = icmp sge i32 %64, 0
  br i1 %65, label %68, label %66

66:                                               ; preds = %62
  %67 = load ptr, ptr @g_assert_poison, align 8
  store i8 88, ptr %67, align 1
  call void (ptr, i32, ptr, ptr, ...) @_Z15report_vm_errorPKciS0_S0_z(ptr noundef @.str.67, i32 noundef 1647, ptr noundef @.str.87, ptr noundef @.str.85) #17
  unreachable

68:                                               ; preds = %62
  br label %69

69:                                               ; preds = %68
  ret void
}