; Function Attrs: mustprogress nounwind uwtable
define hidden void @_ZN13PlatformEvent4parkEv(ptr noundef nonnull align 8 dereferenceable(144) %0) local_unnamed_addr #1 align 2 {
  %2 = getelementptr inbounds i8, ptr %0, i64 32
  br label %3

3:                                                ; preds = %3, %1
  %4 = load volatile i32, ptr %2, align 8
  %5 = add nsw i32 %4, -1
  %6 = tail call noundef i32 asm sideeffect "lock cmpxchgl $1,($3)", "={ax},r,{ax},r,~{cc},~{memory},~{dirflag},~{fpsr},~{flags}"(i32 %5, i32 %4, ptr nonnull %2) #25, !srcloc !21
  %7 = icmp eq i32 %6, %4
  br i1 %7, label %8, label %3, !llvm.loop !22

8:                                                ; preds = %3
  %9 = icmp sgt i32 %4, -1
  br i1 %9, label %12, label %10

10:                                               ; preds = %8
  %11 = load ptr, ptr @g_assert_poison, align 8
  store i8 88, ptr %11, align 1
  tail call void (ptr, i32, ptr, ptr, ...) @_Z15report_vm_errorPKciS0_S0_z(ptr noundef nonnull @.str.67, i32 noundef 1625, ptr noundef nonnull @.str.84, ptr noundef nonnull @.str.85) #28
  unreachable

12:                                               ; preds = %8
  %13 = icmp eq i32 %4, 0
  br i1 %13, label %14, label %35

14:                                               ; preds = %12
  %15 = getelementptr inbounds i8, ptr %0, i64 40
  %16 = tail call i32 @pthread_mutex_lock(ptr noundef nonnull %15) #25
  %17 = getelementptr inbounds i8, ptr %0, i64 36
  %18 = load volatile i32, ptr %17, align 4
  %19 = icmp eq i32 %18, 0
  br i1 %19, label %22, label %20

20:                                               ; preds = %14
  %21 = load ptr, ptr @g_assert_poison, align 8
  store i8 88, ptr %21, align 1
  tail call void (ptr, i32, ptr, ptr, ...) @_Z15report_vm_errorPKciS0_S0_z(ptr noundef nonnull @.str.67, i32 noundef 1630, ptr noundef nonnull @.str.86, ptr noundef nonnull @.str.85) #28
  unreachable

22:                                               ; preds = %14
  %23 = load volatile i32, ptr %17, align 4
  %24 = add nsw i32 %23, 1
  store volatile i32 %24, ptr %17, align 4
  %25 = load volatile i32, ptr %2, align 8
  %26 = icmp slt i32 %25, 0
  br i1 %26, label %.lr.ph, label %._crit_edge

.lr.ph:                                           ; preds = %22
  %27 = getelementptr inbounds i8, ptr %0, i64 80
  br label %28

28:                                               ; preds = %.lr.ph, %28
  %29 = tail call i32 @pthread_cond_wait(ptr noundef nonnull %27, ptr noundef nonnull %15) #25
  %30 = load volatile i32, ptr %2, align 8
  %31 = icmp slt i32 %30, 0
  br i1 %31, label %28, label %._crit_edge, !llvm.loop !23

._crit_edge:                                      ; preds = %28, %22
  %32 = load volatile i32, ptr %17, align 4
  %33 = add nsw i32 %32, -1
  store volatile i32 %33, ptr %17, align 4
  store volatile i32 0, ptr %2, align 8
  %34 = tail call i32 @pthread_mutex_unlock(ptr noundef nonnull %15) #25
  tail call void asm sideeffect "lock; addl $$0,0(%rsp)", "~{cc},~{memory},~{dirflag},~{fpsr},~{flags}"() #25, !srcloc !24
  tail call void asm sideeffect "", "~{memory},~{dirflag},~{fpsr},~{flags}"() #25, !srcloc !25
  br label %35

35:                                               ; preds = %12, %._crit_edge
  %36 = load volatile i32, ptr %2, align 8
  %37 = icmp sgt i32 %36, -1
  br i1 %37, label %40, label %38

38:                                               ; preds = %35
  %39 = load ptr, ptr @g_assert_poison, align 8
  store i8 88, ptr %39, align 1
  tail call void (ptr, i32, ptr, ptr, ...) @_Z15report_vm_errorPKciS0_S0_z(ptr noundef nonnull @.str.67, i32 noundef 1647, ptr noundef nonnull @.str.87, ptr noundef nonnull @.str.85) #28
  unreachable

40:                                               ; preds = %35
  ret void
}